target datalayout = "e-m:e-p270:32:32-p271:32:32-p272:64:64-i64:64-i128:128-f80:128-n8:16:32:64-S128"
target triple = "x86_64-pc-linux-gnu"

%struct.ident_t = type { i32, i32, i32, i32, ptr }
%"struct.faiss::ClusteringParameters" = type { i32, i32, i8, i8, i8, i8, i8, i32, i32, i32, i64 }
%"class.std::vector" = type { %"struct.std::_Vector_base" }
%"struct.std::_Vector_base" = type { %"struct.std::_Vector_base<float, std::allocator<float>>::_Vector_impl" }
%"struct.std::_Vector_base<float, std::allocator<float>>::_Vector_impl" = type { %"struct.std::_Vector_base<float, std::allocator<float>>::_Vector_impl_data" }
%"struct.std::_Vector_base<float, std::allocator<float>>::_Vector_impl_data" = type { ptr, ptr, ptr }
%"struct.faiss::ProductQuantizer" = type { %"struct.faiss::Quantizer", i64, i64, i64, i64, i8, i32, %"struct.faiss::ClusteringParameters", ptr, %"class.std::vector", %"class.std::vector", %"class.std::vector", %"class.std::vector" }
%"struct.faiss::Quantizer" = type { ptr, i64, i64 }

@2 = private unnamed_addr constant %struct.ident_t { i32 0, i32 2, i32 0, i32 22, ptr @0 }, align 8

; Function Attrs: mustprogress nounwind uwtable
define linkonce_odr noundef ptr @_ZNKSt6vectorIfSaIfEE11_M_data_ptrIfEEPT_S4_(ptr noundef nonnull align 8 dereferenceable(24) %0, ptr noundef %1) #1 comdat align 2 {
  %3 = alloca ptr, align 8
  %4 = alloca ptr, align 8
  store ptr %0, ptr %3, align 8
  store ptr %1, ptr %4, align 8
  %5 = load ptr, ptr %4, align 8
  ret ptr %5
}

; Function Attrs: mustprogress nounwind uwtable
define linkonce_odr noundef ptr @_ZNKSt6vectorIfSaIfEE4dataEv(ptr noundef nonnull align 8 dereferenceable(24) %0) #1 comdat align 2 {
  %2 = alloca ptr, align 8
  store ptr %0, ptr %2, align 8
  %3 = load ptr, ptr %2, align 8
  %4 = getelementptr inbounds %"struct.std::_Vector_base", ptr %3, i32 0, i32 0
  %5 = getelementptr inbounds %"struct.std::_Vector_base<float, std::allocator<float>>::_Vector_impl_data", ptr %4, i32 0, i32 0
  %6 = load ptr, ptr %5, align 8
  %7 = call noundef ptr @_ZNKSt6vectorIfSaIfEE11_M_data_ptrIfEEPT_S4_(ptr noundef nonnull align 8 dereferenceable(24) %3, ptr noundef %6) #12
  ret ptr %7
}

; Function Attrs: mustprogress uwtable
define void @_ZNK5faiss16ProductQuantizer23compute_distance_tablesEmPKfPf(ptr noundef nonnull align 8 dereferenceable(208) %0, i64 noundef %1, ptr noundef %2, ptr noundef %3) #0 align 2 {
  %5 = alloca ptr, align 8
  %6 = alloca i64, align 8
  %7 = alloca ptr, align 8
  %8 = alloca ptr, align 8
  %9 = alloca i32, align 4
  %10 = alloca i32, align 4
  %11 = alloca i32, align 4
  %12 = call i32 @__kmpc_global_thread_num(ptr @2)
  store ptr %0, ptr %5, align 8
  store i64 %1, ptr %6, align 8
  store ptr %2, ptr %7, align 8
  store ptr %3, ptr %8, align 8
  %13 = load ptr, ptr %5, align 8
  %14 = getelementptr inbounds %"struct.faiss::ProductQuantizer", ptr %13, i32 0, i32 3
  %15 = load i64, ptr %14, align 8
  %16 = icmp ult i64 %15, 16
  br i1 %16, label %17, label %23

17:                                               ; preds = %4
  %18 = load i64, ptr %6, align 8
  %19 = icmp ugt i64 %18, 1
  br i1 %19, label %20, label %21

20:                                               ; preds = %17
  call void (ptr, i32, ptr, ...) @__kmpc_fork_call(ptr @2, i32 4, ptr @_ZNK5faiss16ProductQuantizer23compute_distance_tablesEmPKfPf.omp_outlined, ptr %6, ptr %13, ptr %7, ptr %8)
  br label %22

21:                                               ; preds = %17
  call void @__kmpc_serialized_parallel(ptr @2, i32 %12)
  store i32 %12, ptr %9, align 4
  store i32 0, ptr %10, align 4
  call void @_ZNK5faiss16ProductQuantizer23compute_distance_tablesEmPKfPf.omp_outlined(ptr %9, ptr %10, ptr %6, ptr %13, ptr %7, ptr %8) #12
  call void @__kmpc_end_serialized_parallel(ptr @2, i32 %12)
  br label %22

22:                                               ; preds = %21, %20
  br label %74

23:                                               ; preds = %4
  store i32 0, ptr %11, align 4
  br label %24

24:                                               ; preds = %70, %23
  %25 = load i32, ptr %11, align 4
  %26 = sext i32 %25 to i64
  %27 = getelementptr inbounds %"struct.faiss::ProductQuantizer", ptr %13, i32 0, i32 1
  %28 = load i64, ptr %27, align 8
  %29 = icmp ult i64 %26, %28
  br i1 %29, label %30, label %73

30:                                               ; preds = %24
  %31 = getelementptr inbounds %"struct.faiss::ProductQuantizer", ptr %13, i32 0, i32 3
  %32 = load i64, ptr %31, align 8
  %33 = load i64, ptr %6, align 8
  %34 = load ptr, ptr %7, align 8
  %35 = getelementptr inbounds %"struct.faiss::ProductQuantizer", ptr %13, i32 0, i32 3
  %36 = load i64, ptr %35, align 8
  %37 = load i32, ptr %11, align 4
  %38 = sext i32 %37 to i64
  %39 = mul i64 %36, %38
  %40 = getelementptr inbounds float, ptr %34, i64 %39
  %41 = getelementptr inbounds %"struct.faiss::ProductQuantizer", ptr %13, i32 0, i32 4
  %42 = load i64, ptr %41, align 8
  %43 = getelementptr inbounds %"struct.faiss::ProductQuantizer", ptr %13, i32 0, i32 9
  %44 = call noundef ptr @_ZNKSt6vectorIfSaIfEE4dataEv(ptr noundef nonnull align 8 dereferenceable(24) %43) #12
  %45 = load i32, ptr %11, align 4
  %46 = sext i32 %45 to i64
  %47 = getelementptr inbounds %"struct.faiss::ProductQuantizer", ptr %13, i32 0, i32 3
  %48 = load i64, ptr %47, align 8
  %49 = mul i64 %46, %48
  %50 = getelementptr inbounds %"struct.faiss::ProductQuantizer", ptr %13, i32 0, i32 4
  %51 = load i64, ptr %50, align 8
  %52 = mul i64 %49, %51
  %53 = getelementptr inbounds float, ptr %44, i64 %52
  %54 = load ptr, ptr %8, align 8
  %55 = getelementptr inbounds %"struct.faiss::ProductQuantizer", ptr %13, i32 0, i32 4
  %56 = load i64, ptr %55, align 8
  %57 = load i32, ptr %11, align 4
  %58 = sext i32 %57 to i64
  %59 = mul i64 %56, %58
  %60 = getelementptr inbounds float, ptr %54, i64 %59
  %61 = getelementptr inbounds %"struct.faiss::Quantizer", ptr %13, i32 0, i32 1
  %62 = load i64, ptr %61, align 8
  %63 = getelementptr inbounds %"struct.faiss::ProductQuantizer", ptr %13, i32 0, i32 3
  %64 = load i64, ptr %63, align 8
  %65 = getelementptr inbounds %"struct.faiss::ProductQuantizer", ptr %13, i32 0, i32 4
  %66 = load i64, ptr %65, align 8
  %67 = getelementptr inbounds %"struct.faiss::ProductQuantizer", ptr %13, i32 0, i32 1
  %68 = load i64, ptr %67, align 8
  %69 = mul i64 %66, %68
  call void @_ZN5faiss14pairwise_L2sqrEllPKflS1_Pflll(i64 noundef %32, i64 noundef %33, ptr noundef %40, i64 noundef %42, ptr noundef %53, ptr noundef %60, i64 noundef %62, i64 noundef %64, i64 noundef %69)
  br label %70

70:                                               ; preds = %30
  %71 = load i32, ptr %11, align 4
  %72 = add nsw i32 %71, 1
  store i32 %72, ptr %11, align 4
  br label %24, !llvm.loop !38

73:                                               ; preds = %24
  br label %74

74:                                               ; preds = %73, %22
  ret void
}