; Function Attrs: mustprogress uwtable
define void @_ZNK5faiss16ProductQuantizer23compute_distance_tablesEmPKfPf(ptr noundef nonnull align 8 dereferenceable(208) %0, i64 noundef %1, ptr noundef %2, ptr noundef %3) local_unnamed_addr #0 align 2 {
  %5 = alloca i64, align 8
  %6 = alloca ptr, align 8
  %7 = alloca ptr, align 8
  %8 = alloca i32, align 4
  %9 = tail call i32 @__kmpc_global_thread_num(ptr nonnull @2)
  store i64 %1, ptr %5, align 8
  store ptr %2, ptr %6, align 8
  store ptr %3, ptr %7, align 8
  %10 = getelementptr inbounds i8, ptr %0, i64 40
  %11 = load i64, ptr %10, align 8
  %12 = icmp ult i64 %11, 16
  br i1 %12, label %18, label %.preheader

.preheader:                                       ; preds = %4
  %13 = getelementptr inbounds i8, ptr %0, i64 24
  %14 = load i64, ptr %13, align 8
  %.not = icmp eq i64 %14, 0
  br i1 %.not, label %.loopexit, label %.lr.ph

.lr.ph:                                           ; preds = %.preheader
  %15 = getelementptr inbounds i8, ptr %0, i64 48
  %16 = getelementptr inbounds i8, ptr %0, i64 112
  %17 = getelementptr inbounds i8, ptr %0, i64 8
  br label %22

18:                                               ; preds = %4
  %19 = icmp ugt i64 %1, 1
  br i1 %19, label %20, label %21

20:                                               ; preds = %18
  call void (ptr, i32, ptr, ...) @__kmpc_fork_call(ptr nonnull @2, i32 4, ptr nonnull @_ZNK5faiss16ProductQuantizer23compute_distance_tablesEmPKfPf.omp_outlined, ptr nonnull %5, ptr nonnull %0, ptr nonnull %6, ptr nonnull %7)
  br label %.loopexit

21:                                               ; preds = %18
  tail call void @__kmpc_serialized_parallel(ptr nonnull @2, i32 %9)
  store i32 %9, ptr %8, align 4
  call void @_ZNK5faiss16ProductQuantizer23compute_distance_tablesEmPKfPf.omp_outlined(ptr nonnull %8, ptr nonnull poison, ptr %5, ptr nonnull %0, ptr %6, ptr %7) #16
  tail call void @__kmpc_end_serialized_parallel(ptr nonnull @2, i32 %9)
  br label %.loopexit

22:                                               ; preds = %.lr.ph, %22
  %indvars.iv = phi i64 [ 0, %.lr.ph ], [ %indvars.iv.next, %22 ]
  %23 = phi i64 [ %14, %.lr.ph ], [ %35, %22 ]
  %24 = load i64, ptr %10, align 8
  %25 = mul i64 %24, %indvars.iv
  %26 = getelementptr inbounds float, ptr %2, i64 %25
  %27 = load i64, ptr %15, align 8
  %28 = load ptr, ptr %16, align 8
  %29 = mul i64 %27, %25
  %30 = getelementptr inbounds float, ptr %28, i64 %29
  %31 = mul i64 %27, %indvars.iv
  %32 = getelementptr inbounds float, ptr %3, i64 %31
  %33 = load i64, ptr %17, align 8
  %34 = mul i64 %27, %23
  tail call void @_ZN5faiss14pairwise_L2sqrEllPKflS1_Pflll(i64 noundef %24, i64 noundef %1, ptr noundef %26, i64 noundef %27, ptr noundef %30, ptr noundef %32, i64 noundef %33, i64 noundef %24, i64 noundef %34)
  %indvars.iv.next = add nuw nsw i64 %indvars.iv, 1
  %35 = load i64, ptr %13, align 8
  %36 = icmp ugt i64 %35, %indvars.iv.next
  br i1 %36, label %22, label %.loopexit, !llvm.loop !39

.loopexit:                                        ; preds = %22, %.preheader, %20, %21
  ret void
}